; Function Attrs: nofree norecurse nosync nounwind memory(read, inaccessiblemem: none) uwtable
define ptr @Aig_RManTableLookup(ptr noundef readonly captures(none) %0, ptr noundef readonly captures(none) %1, i32 noundef %2) local_unnamed_addr #4 {
  %4 = getelementptr inbounds nuw i8, ptr %0, i64 24
  %5 = load ptr, ptr %4, align 8, !tbaa !18
  %6 = getelementptr inbounds nuw i8, ptr %0, i64 16
  %7 = load i32, ptr %6, align 8, !tbaa !17
  %8 = icmp slt i32 %2, 6
  %9 = add nsw i32 %2, -5
  %10 = shl nuw i32 1, %9
  %11 = select i1 %8, i32 1, i32 %10
  %12 = icmp sgt i32 %11, 0
  br i1 %12, label %.lr.ph.preheader.i, label %Aig_RManTableHash.exit

.lr.ph.preheader.i:                               ; preds = %3
  %wide.trip.count.i = zext nneg i32 %11 to i64
  br label %.lr.ph.i

.lr.ph.i:                                         ; preds = %.lr.ph.i, %.lr.ph.preheader.i
  %indvars.iv.i = phi i64 [ 0, %.lr.ph.preheader.i ], [ %indvars.iv.next.i, %.lr.ph.i ]
  %.02.i = phi i32 [ 0, %.lr.ph.preheader.i ], [ %19, %.lr.ph.i ]
  %13 = getelementptr inbounds nuw i32, ptr %1, i64 %indvars.iv.i
  %14 = load i32, ptr %13, align 4, !tbaa !24
  %15 = and i64 %indvars.iv.i, 15
  %16 = getelementptr inbounds nuw i32, ptr @Aig_RManTableLookup.s_Primes, i64 %15
  %17 = load i32, ptr %16, align 4, !tbaa !24
  %18 = mul i32 %17, %14
  %19 = xor i32 %18, %.02.i
  %indvars.iv.next.i = add nuw nsw i64 %indvars.iv.i, 1
  %exitcond.not.i = icmp eq i64 %indvars.iv.next.i, %wide.trip.count.i
  br i1 %exitcond.not.i, label %Aig_RManTableHash.exit, label %.lr.ph.i, !llvm.loop !25

Aig_RManTableHash.exit:                           ; preds = %.lr.ph.i, %3
  %.0.lcssa.i = phi i32 [ 0, %3 ], [ %19, %.lr.ph.i ]
  %20 = urem i32 %.0.lcssa.i, %7
  %21 = sext i32 %20 to i64
  %22 = getelementptr inbounds ptr, ptr %5, i64 %21
  %.022 = load ptr, ptr %22, align 8, !tbaa !26
  %.not23 = icmp eq ptr %.022, null
  br i1 %.not23, label %Kit_TruthIsEqual.exit.thread, label %.lr.ph

.lr.ph:                                           ; preds = %Aig_RManTableHash.exit
  %23 = zext i32 %11 to i64
  br label %24

24:                                               ; preds = %.lr.ph, %Kit_TruthIsEqual.exit
  %.025 = phi ptr [ %.022, %.lr.ph ], [ %.0, %Kit_TruthIsEqual.exit ]
  %.01324 = phi ptr [ %22, %.lr.ph ], [ %.025, %Kit_TruthIsEqual.exit ]
  %25 = getelementptr inbounds nuw i8, ptr %.025, i64 16
  br label %select.unfold.i

select.unfold.i:                                  ; preds = %28, %24
  %indvars.iv.i16 = phi i64 [ %23, %24 ], [ %29, %28 ]
  %26 = trunc nuw i64 %indvars.iv.i16 to i32
  %27 = icmp sgt i32 %26, 0
  br i1 %27, label %28, label %Kit_TruthIsEqual.exit.thread

28:                                               ; preds = %select.unfold.i
  %29 = add nsw i64 %indvars.iv.i16, -1
  %30 = getelementptr inbounds nuw i32, ptr %25, i64 %29
  %31 = load i32, ptr %30, align 4, !tbaa !24
  %32 = getelementptr inbounds nuw i32, ptr %1, i64 %29
  %33 = load i32, ptr %32, align 4, !tbaa !24
  %.not.i = icmp eq i32 %31, %33
  br i1 %.not.i, label %select.unfold.i, label %Kit_TruthIsEqual.exit, !llvm.loop !28

Kit_TruthIsEqual.exit:                            ; preds = %28
  %.0 = load ptr, ptr %.025, align 8, !tbaa !26
  %.not = icmp eq ptr %.0, null
  br i1 %.not, label %Kit_TruthIsEqual.exit.thread, label %24, !llvm.loop !29

Kit_TruthIsEqual.exit.thread:                     ; preds = %Kit_TruthIsEqual.exit, %select.unfold.i, %Aig_RManTableHash.exit
  %.01321 = phi ptr [ %22, %Aig_RManTableHash.exit ], [ %.01324, %select.unfold.i ], [ %.025, %Kit_TruthIsEqual.exit ]
  ret ptr %.01321
}